target datalayout = "e-m:e-p270:32:32-p271:32:32-p272:64:64-i64:64-i128:128-f80:128-n8:16:32:64-S128"
target triple = "x86_64-pc-linux-gnu"

%struct.SUNProfiler_ = type { i32, ptr, ptr, ptr, double }
%struct._sunTimerStruct = type { ptr, ptr, double, double, double, i64 }
%struct.timespec = type { i64, i64 }
%struct.SUNHashMap_ = type { i32, i32, ptr }
%struct.SUNHashMapKeyValue_ = type { ptr, ptr }

; Function Attrs: nounwind uwtable
define internal i32 @sunclock_gettime_monotonic(ptr noundef %0) #0 {
  %2 = alloca ptr, align 8
  store ptr %0, ptr %2, align 8, !tbaa !54
  %3 = load ptr, ptr %2, align 8, !tbaa !54
  %4 = call i32 @clock_gettime(i32 noundef 1, ptr noundef %3) #8
  ret i32 %4
}

; Function Attrs: nounwind uwtable
define internal void @sunStopTiming(ptr noundef %0) #0 {
  %2 = alloca ptr, align 8
  %3 = alloca i64, align 8
  %4 = alloca i64, align 8
  store ptr %0, ptr %2, align 8, !tbaa !22
  call void @llvm.lifetime.start.p0(i64 8, ptr %3) #8
  store i64 0, ptr %3, align 8, !tbaa !36
  call void @llvm.lifetime.start.p0(i64 8, ptr %4) #8
  store i64 0, ptr %4, align 8, !tbaa !36
  %5 = load ptr, ptr %2, align 8, !tbaa !22
  %6 = getelementptr inbounds nuw %struct._sunTimerStruct, ptr %5, i32 0, i32 1
  %7 = load ptr, ptr %6, align 8, !tbaa !27
  %8 = call i32 @sunclock_gettime_monotonic(ptr noundef %7)
  %9 = load ptr, ptr %2, align 8, !tbaa !22
  %10 = getelementptr inbounds nuw %struct._sunTimerStruct, ptr %9, i32 0, i32 1
  %11 = load ptr, ptr %10, align 8, !tbaa !27
  %12 = getelementptr inbounds nuw %struct.timespec, ptr %11, i32 0, i32 0
  %13 = load i64, ptr %12, align 8, !tbaa !28
  %14 = load ptr, ptr %2, align 8, !tbaa !22
  %15 = getelementptr inbounds nuw %struct._sunTimerStruct, ptr %14, i32 0, i32 0
  %16 = load ptr, ptr %15, align 8, !tbaa !23
  %17 = getelementptr inbounds nuw %struct.timespec, ptr %16, i32 0, i32 0
  %18 = load i64, ptr %17, align 8, !tbaa !28
  %19 = sub nsw i64 %13, %18
  store i64 %19, ptr %3, align 8, !tbaa !36
  %20 = load ptr, ptr %2, align 8, !tbaa !22
  %21 = getelementptr inbounds nuw %struct._sunTimerStruct, ptr %20, i32 0, i32 1
  %22 = load ptr, ptr %21, align 8, !tbaa !27
  %23 = getelementptr inbounds nuw %struct.timespec, ptr %22, i32 0, i32 1
  %24 = load i64, ptr %23, align 8, !tbaa !30
  %25 = load ptr, ptr %2, align 8, !tbaa !22
  %26 = getelementptr inbounds nuw %struct._sunTimerStruct, ptr %25, i32 0, i32 0
  %27 = load ptr, ptr %26, align 8, !tbaa !23
  %28 = getelementptr inbounds nuw %struct.timespec, ptr %27, i32 0, i32 1
  %29 = load i64, ptr %28, align 8, !tbaa !30
  %30 = sub nsw i64 %24, %29
  store i64 %30, ptr %4, align 8, !tbaa !36
  %31 = load i64, ptr %4, align 8, !tbaa !36
  %32 = icmp slt i64 %31, 0
  br i1 %32, label %33, label %48

33:                                               ; preds = %1
  %34 = load i64, ptr %3, align 8, !tbaa !36
  %35 = add nsw i64 %34, -1
  store i64 %35, ptr %3, align 8, !tbaa !36
  %36 = load ptr, ptr %2, align 8, !tbaa !22
  %37 = getelementptr inbounds nuw %struct._sunTimerStruct, ptr %36, i32 0, i32 1
  %38 = load ptr, ptr %37, align 8, !tbaa !27
  %39 = getelementptr inbounds nuw %struct.timespec, ptr %38, i32 0, i32 1
  %40 = load i64, ptr %39, align 8, !tbaa !30
  %41 = add nsw i64 1000000000, %40
  %42 = load ptr, ptr %2, align 8, !tbaa !22
  %43 = getelementptr inbounds nuw %struct._sunTimerStruct, ptr %42, i32 0, i32 0
  %44 = load ptr, ptr %43, align 8, !tbaa !23
  %45 = getelementptr inbounds nuw %struct.timespec, ptr %44, i32 0, i32 1
  %46 = load i64, ptr %45, align 8, !tbaa !30
  %47 = sub nsw i64 %41, %46
  store i64 %47, ptr %4, align 8, !tbaa !36
  br label %48

48:                                               ; preds = %33, %1
  %49 = load i64, ptr %3, align 8, !tbaa !36
  %50 = sitofp i64 %49 to double
  %51 = load i64, ptr %4, align 8, !tbaa !36
  %52 = sitofp i64 %51 to double
  %53 = call double @llvm.fmuladd.f64(double %52, double 1.000000e-09, double %50)
  %54 = load ptr, ptr %2, align 8, !tbaa !22
  %55 = getelementptr inbounds nuw %struct._sunTimerStruct, ptr %54, i32 0, i32 4
  %56 = load double, ptr %55, align 8, !tbaa !31
  %57 = fadd double %56, %53
  store double %57, ptr %55, align 8, !tbaa !31
  %58 = load ptr, ptr %2, align 8, !tbaa !22
  %59 = getelementptr inbounds nuw %struct._sunTimerStruct, ptr %58, i32 0, i32 4
  %60 = load double, ptr %59, align 8, !tbaa !31
  %61 = load ptr, ptr %2, align 8, !tbaa !22
  %62 = getelementptr inbounds nuw %struct._sunTimerStruct, ptr %61, i32 0, i32 2
  store double %60, ptr %62, align 8, !tbaa !32
  %63 = load ptr, ptr %2, align 8, !tbaa !22
  %64 = getelementptr inbounds nuw %struct._sunTimerStruct, ptr %63, i32 0, i32 4
  %65 = load double, ptr %64, align 8, !tbaa !31
  %66 = load ptr, ptr %2, align 8, !tbaa !22
  %67 = getelementptr inbounds nuw %struct._sunTimerStruct, ptr %66, i32 0, i32 3
  store double %65, ptr %67, align 8, !tbaa !33
  call void @llvm.lifetime.end.p0(i64 8, ptr %4) #8
  call void @llvm.lifetime.end.p0(i64 8, ptr %3) #8
  ret void
}

; Function Attrs: nounwind uwtable
define internal void @sunStartTiming(ptr noundef %0) #0 {
  %2 = alloca ptr, align 8
  store ptr %0, ptr %2, align 8, !tbaa !22
  %3 = load ptr, ptr %2, align 8, !tbaa !22
  %4 = getelementptr inbounds nuw %struct._sunTimerStruct, ptr %3, i32 0, i32 0
  %5 = load ptr, ptr %4, align 8, !tbaa !23
  %6 = call i32 @sunclock_gettime_monotonic(ptr noundef %5)
  ret void
}

; Function Attrs: nounwind uwtable
define internal void @sunResetTiming(ptr noundef %0) #0 {
  %2 = alloca ptr, align 8
  store ptr %0, ptr %2, align 8, !tbaa !22
  %3 = load ptr, ptr %2, align 8, !tbaa !22
  %4 = getelementptr inbounds nuw %struct._sunTimerStruct, ptr %3, i32 0, i32 0
  %5 = load ptr, ptr %4, align 8, !tbaa !23
  %6 = getelementptr inbounds nuw %struct.timespec, ptr %5, i32 0, i32 0
  store i64 0, ptr %6, align 8, !tbaa !28
  %7 = load ptr, ptr %2, align 8, !tbaa !22
  %8 = getelementptr inbounds nuw %struct._sunTimerStruct, ptr %7, i32 0, i32 0
  %9 = load ptr, ptr %8, align 8, !tbaa !23
  %10 = getelementptr inbounds nuw %struct.timespec, ptr %9, i32 0, i32 1
  store i64 0, ptr %10, align 8, !tbaa !30
  %11 = load ptr, ptr %2, align 8, !tbaa !22
  %12 = getelementptr inbounds nuw %struct._sunTimerStruct, ptr %11, i32 0, i32 1
  %13 = load ptr, ptr %12, align 8, !tbaa !27
  %14 = getelementptr inbounds nuw %struct.timespec, ptr %13, i32 0, i32 0
  store i64 0, ptr %14, align 8, !tbaa !28
  %15 = load ptr, ptr %2, align 8, !tbaa !22
  %16 = getelementptr inbounds nuw %struct._sunTimerStruct, ptr %15, i32 0, i32 1
  %17 = load ptr, ptr %16, align 8, !tbaa !27
  %18 = getelementptr inbounds nuw %struct.timespec, ptr %17, i32 0, i32 1
  store i64 0, ptr %18, align 8, !tbaa !30
  %19 = load ptr, ptr %2, align 8, !tbaa !22
  %20 = getelementptr inbounds nuw %struct._sunTimerStruct, ptr %19, i32 0, i32 4
  store double 0.000000e+00, ptr %20, align 8, !tbaa !31
  %21 = load ptr, ptr %2, align 8, !tbaa !22
  %22 = getelementptr inbounds nuw %struct._sunTimerStruct, ptr %21, i32 0, i32 2
  store double 0.000000e+00, ptr %22, align 8, !tbaa !32
  %23 = load ptr, ptr %2, align 8, !tbaa !22
  %24 = getelementptr inbounds nuw %struct._sunTimerStruct, ptr %23, i32 0, i32 3
  store double 0.000000e+00, ptr %24, align 8, !tbaa !33
  %25 = load ptr, ptr %2, align 8, !tbaa !22
  %26 = getelementptr inbounds nuw %struct._sunTimerStruct, ptr %25, i32 0, i32 5
  store i64 0, ptr %26, align 8, !tbaa !34
  ret void
}

; Function Attrs: nounwind uwtable
define i32 @SUNProfiler_Reset(ptr noundef %0) #0 {
  %2 = alloca i32, align 4
  %3 = alloca ptr, align 8
  %4 = alloca i32, align 4
  %5 = alloca ptr, align 8
  %6 = alloca i32, align 4
  store ptr %0, ptr %3, align 8, !tbaa !12
  call void @llvm.lifetime.start.p0(i64 4, ptr %4) #8
  store i32 0, ptr %4, align 4, !tbaa !3
  call void @llvm.lifetime.start.p0(i64 8, ptr %5) #8
  store ptr null, ptr %5, align 8, !tbaa !22
  %7 = load ptr, ptr %3, align 8, !tbaa !12
  %8 = icmp ne ptr %7, null
  br i1 %8, label %10, label %9

9:                                                ; preds = %1
  store i32 -9999, ptr %2, align 4
  store i32 1, ptr %6, align 4
  br label %63

10:                                               ; preds = %1
  %11 = load ptr, ptr %3, align 8, !tbaa !12
  %12 = getelementptr inbounds nuw %struct.SUNProfiler_, ptr %11, i32 0, i32 3
  %13 = load ptr, ptr %12, align 8, !tbaa !14
  call void @sunResetTiming(ptr noundef %13)
  %14 = load ptr, ptr %3, align 8, !tbaa !12
  %15 = getelementptr inbounds nuw %struct.SUNProfiler_, ptr %14, i32 0, i32 3
  %16 = load ptr, ptr %15, align 8, !tbaa !14
  call void @sunStartTiming(ptr noundef %16)
  store i32 0, ptr %4, align 4, !tbaa !3
  br label %17

17:                                               ; preds = %54, %10
  %18 = load i32, ptr %4, align 4, !tbaa !3
  %19 = load ptr, ptr %3, align 8, !tbaa !12
  %20 = getelementptr inbounds nuw %struct.SUNProfiler_, ptr %19, i32 0, i32 2
  %21 = load ptr, ptr %20, align 8, !tbaa !37
  %22 = getelementptr inbounds nuw %struct.SUNHashMap_, ptr %21, i32 0, i32 1
  %23 = load i32, ptr %22, align 4, !tbaa !41
  %24 = icmp slt i32 %18, %23
  br i1 %24, label %25, label %57

25:                                               ; preds = %17
  %26 = load ptr, ptr %3, align 8, !tbaa !12
  %27 = getelementptr inbounds nuw %struct.SUNProfiler_, ptr %26, i32 0, i32 2
  %28 = load ptr, ptr %27, align 8, !tbaa !37
  %29 = getelementptr inbounds nuw %struct.SUNHashMap_, ptr %28, i32 0, i32 2
  %30 = load ptr, ptr %29, align 8, !tbaa !44
  %31 = load i32, ptr %4, align 4, !tbaa !3
  %32 = sext i32 %31 to i64
  %33 = getelementptr inbounds ptr, ptr %30, i64 %32
  %34 = load ptr, ptr %33, align 8, !tbaa !45
  %35 = icmp ne ptr %34, null
  br i1 %35, label %37, label %36

36:                                               ; preds = %25
  br label %54

37:                                               ; preds = %25
  %38 = load ptr, ptr %3, align 8, !tbaa !12
  %39 = getelementptr inbounds nuw %struct.SUNProfiler_, ptr %38, i32 0, i32 2
  %40 = load ptr, ptr %39, align 8, !tbaa !37
  %41 = getelementptr inbounds nuw %struct.SUNHashMap_, ptr %40, i32 0, i32 2
  %42 = load ptr, ptr %41, align 8, !tbaa !44
  %43 = load i32, ptr %4, align 4, !tbaa !3
  %44 = sext i32 %43 to i64
  %45 = getelementptr inbounds ptr, ptr %42, i64 %44
  %46 = load ptr, ptr %45, align 8, !tbaa !45
  %47 = getelementptr inbounds nuw %struct.SUNHashMapKeyValue_, ptr %46, i32 0, i32 1
  %48 = load ptr, ptr %47, align 8, !tbaa !47
  store ptr %48, ptr %5, align 8, !tbaa !22
  %49 = load ptr, ptr %5, align 8, !tbaa !22
  %50 = icmp ne ptr %49, null
  br i1 %50, label %51, label %53

51:                                               ; preds = %37
  %52 = load ptr, ptr %5, align 8, !tbaa !22
  call void @sunResetTiming(ptr noundef %52)
  br label %53

53:                                               ; preds = %51, %37
  br label %54

54:                                               ; preds = %53, %36
  %55 = load i32, ptr %4, align 4, !tbaa !3
  %56 = add nsw i32 %55, 1
  store i32 %56, ptr %4, align 4, !tbaa !3
  br label %17

57:                                               ; preds = %17
  %58 = load ptr, ptr %3, align 8, !tbaa !12
  %59 = getelementptr inbounds nuw %struct.SUNProfiler_, ptr %58, i32 0, i32 4
  store double 0.000000e+00, ptr %59, align 8, !tbaa !21
  %60 = load ptr, ptr %3, align 8, !tbaa !12
  %61 = getelementptr inbounds nuw %struct.SUNProfiler_, ptr %60, i32 0, i32 3
  %62 = load ptr, ptr %61, align 8, !tbaa !14
  call void @sunStopTiming(ptr noundef %62)
  store i32 0, ptr %2, align 4
  store i32 1, ptr %6, align 4
  br label %63

63:                                               ; preds = %57, %9
  call void @llvm.lifetime.end.p0(i64 8, ptr %5) #8
  call void @llvm.lifetime.end.p0(i64 4, ptr %4) #8
  %64 = load i32, ptr %2, align 4
  ret i32 %64
}