; Function Attrs: nounwind uwtable
define range(i32 -9999, 1) i32 @SUNProfiler_Reset(ptr noundef captures(address_is_null) %0) local_unnamed_addr #0 {
  %.not = icmp eq ptr %0, null
  br i1 %.not, label %61, label %2

2:                                                ; preds = %1
  %3 = getelementptr inbounds nuw i8, ptr %0, i64 24
  %4 = load ptr, ptr %3, align 8, !tbaa !14
  %5 = load ptr, ptr %4, align 8, !tbaa !8
  %6 = getelementptr inbounds nuw i8, ptr %4, i64 8
  tail call void @llvm.memset.p0.i64(ptr noundef nonnull align 8 dereferenceable(16) %5, i8 0, i64 16, i1 false)
  %7 = load ptr, ptr %6, align 8, !tbaa !13
  tail call void @llvm.memset.p0.i64(ptr noundef nonnull align 8 dereferenceable(16) %7, i8 0, i64 16, i1 false)
  %8 = getelementptr inbounds nuw i8, ptr %4, i64 16
  tail call void @llvm.memset.p0.i64(ptr noundef nonnull align 8 dereferenceable(32) %8, i8 0, i64 32, i1 false)
  %9 = load ptr, ptr %3, align 8, !tbaa !14
  %.val = load ptr, ptr %9, align 8, !tbaa !8
  %10 = tail call i32 @clock_gettime(i32 noundef 1, ptr noundef %.val) #18
  %11 = getelementptr inbounds nuw i8, ptr %0, i64 16
  %12 = load ptr, ptr %11, align 8, !tbaa !30
  %13 = getelementptr inbounds nuw i8, ptr %12, i64 4
  %14 = load i32, ptr %13, align 4, !tbaa !33
  %15 = icmp sgt i32 %14, 0
  br i1 %15, label %.lr.ph, label %._crit_edge

.lr.ph:                                           ; preds = %2, %29
  %16 = phi ptr [ %30, %29 ], [ %12, %2 ]
  %indvars.iv = phi i64 [ %indvars.iv.next, %29 ], [ 0, %2 ]
  %17 = getelementptr inbounds nuw i8, ptr %16, i64 8
  %18 = load ptr, ptr %17, align 8, !tbaa !36
  %19 = getelementptr inbounds nuw ptr, ptr %18, i64 %indvars.iv
  %20 = load ptr, ptr %19, align 8, !tbaa !37
  %.not18 = icmp eq ptr %20, null
  br i1 %.not18, label %29, label %21

21:                                               ; preds = %.lr.ph
  %22 = getelementptr inbounds nuw i8, ptr %20, i64 8
  %23 = load ptr, ptr %22, align 8, !tbaa !39
  %.not19 = icmp eq ptr %23, null
  br i1 %.not19, label %29, label %24

24:                                               ; preds = %21
  %25 = load ptr, ptr %23, align 8, !tbaa !8
  %26 = getelementptr inbounds nuw i8, ptr %23, i64 8
  tail call void @llvm.memset.p0.i64(ptr noundef nonnull align 8 dereferenceable(16) %25, i8 0, i64 16, i1 false)
  %27 = load ptr, ptr %26, align 8, !tbaa !13
  tail call void @llvm.memset.p0.i64(ptr noundef nonnull align 8 dereferenceable(16) %27, i8 0, i64 16, i1 false)
  %28 = getelementptr inbounds nuw i8, ptr %23, i64 16
  tail call void @llvm.memset.p0.i64(ptr noundef nonnull align 8 dereferenceable(32) %28, i8 0, i64 32, i1 false)
  %.pre = load ptr, ptr %11, align 8, !tbaa !30
  br label %29

29:                                               ; preds = %21, %24, %.lr.ph
  %30 = phi ptr [ %16, %21 ], [ %.pre, %24 ], [ %16, %.lr.ph ]
  %indvars.iv.next = add nuw nsw i64 %indvars.iv, 1
  %31 = getelementptr inbounds nuw i8, ptr %30, i64 4
  %32 = load i32, ptr %31, align 4, !tbaa !33
  %33 = sext i32 %32 to i64
  %34 = icmp slt i64 %indvars.iv.next, %33
  br i1 %34, label %.lr.ph, label %._crit_edge

._crit_edge:                                      ; preds = %29, %2
  %35 = getelementptr inbounds nuw i8, ptr %0, i64 32
  store double 0.000000e+00, ptr %35, align 8, !tbaa !22
  %36 = load ptr, ptr %3, align 8, !tbaa !14
  %37 = getelementptr inbounds nuw i8, ptr %36, i64 8
  %38 = load ptr, ptr %37, align 8, !tbaa !13
  %39 = tail call i32 @clock_gettime(i32 noundef 1, ptr noundef %38) #18
  %40 = load ptr, ptr %37, align 8, !tbaa !13
  %41 = load i64, ptr %40, align 8, !tbaa !23
  %42 = load ptr, ptr %36, align 8, !tbaa !8
  %43 = load i64, ptr %42, align 8, !tbaa !23
  %44 = sub i64 %41, %43
  %45 = getelementptr inbounds nuw i8, ptr %40, i64 8
  %46 = load i64, ptr %45, align 8, !tbaa !25
  %47 = getelementptr inbounds nuw i8, ptr %42, i64 8
  %48 = load i64, ptr %47, align 8, !tbaa !25
  %49 = sub nsw i64 %46, %48
  %50 = icmp slt i64 %49, 0
  %51 = add nsw i64 %46, 1000000000
  %52 = sub i64 %51, %48
  %.lobit.i = ashr i64 %49, 63
  %.015.i = add nsw i64 %44, %.lobit.i
  %.0.i = select i1 %50, i64 %52, i64 %49
  %53 = sitofp i64 %.015.i to double
  %54 = sitofp i64 %.0.i to double
  %55 = tail call double @llvm.fmuladd.f64(double %54, double 1.000000e-09, double %53)
  %56 = getelementptr inbounds nuw i8, ptr %36, i64 32
  %57 = load double, ptr %56, align 8, !tbaa !26
  %58 = fadd double %57, %55
  store double %58, ptr %56, align 8, !tbaa !26
  %59 = getelementptr inbounds nuw i8, ptr %36, i64 16
  store double %58, ptr %59, align 8, !tbaa !27
  %60 = getelementptr inbounds nuw i8, ptr %36, i64 24
  store double %58, ptr %60, align 8, !tbaa !28
  br label %61

61:                                               ; preds = %1, %._crit_edge
  %.014 = phi i32 [ 0, %._crit_edge ], [ -9999, %1 ]
  ret i32 %.014
}